target datalayout = "e-m:e-p270:32:32-p271:32:32-p272:64:64-i64:64-i128:128-f80:128-n8:16:32:64-S128"
target triple = "x86_64-pc-linux-gnu"

%struct._cms_curve_struct = type { ptr, i32, ptr, ptr, ptr, i32, ptr }

@.str.17 = private unnamed_addr constant [12 x i8] c"{ 1 } bind \00", align 1
@.str.18 = private unnamed_addr constant [17 x i8] c"{ %g exp } bind \00", align 1
@.str.19 = private unnamed_addr constant [3 x i8] c"{ \00", align 1
@.str.20 = private unnamed_addr constant [3 x i8] c" [\00", align 1
@.str.21 = private unnamed_addr constant [4 x i8] c"\0A  \00", align 1
@.str.22 = private unnamed_addr constant [4 x i8] c"%d \00", align 1
@.str.23 = private unnamed_addr constant [3 x i8] c"] \00", align 1
@.str.24 = private unnamed_addr constant [5 x i8] c"dup \00", align 1
@.str.25 = private unnamed_addr constant [14 x i8] c"length 1 sub \00", align 1
@.str.26 = private unnamed_addr constant [11 x i8] c"3 -1 roll \00", align 1
@.str.27 = private unnamed_addr constant [5 x i8] c"mul \00", align 1
@.str.28 = private unnamed_addr constant [11 x i8] c"floor cvi \00", align 1
@.str.29 = private unnamed_addr constant [6 x i8] c"exch \00", align 1
@.str.30 = private unnamed_addr constant [13 x i8] c"ceiling cvi \00", align 1
@.str.31 = private unnamed_addr constant [9 x i8] c"3 index \00", align 1
@.str.32 = private unnamed_addr constant [7 x i8] c"get\0A  \00", align 1
@.str.33 = private unnamed_addr constant [11 x i8] c"4 -1 roll \00", align 1
@.str.34 = private unnamed_addr constant [5 x i8] c"get \00", align 1
@.str.35 = private unnamed_addr constant [10 x i8] c"3 1 roll \00", align 1
@.str.36 = private unnamed_addr constant [5 x i8] c"sub \00", align 1
@.str.37 = private unnamed_addr constant [5 x i8] c"add \00", align 1
@.str.38 = private unnamed_addr constant [11 x i8] c"65535 div\0A\00", align 1
@.str.39 = private unnamed_addr constant [9 x i8] c" } bind \00", align 1
@.str.40 = private unnamed_addr constant [53 x i8] c"dup 0.0 lt { pop 0.0 } if dup 1.0 gt { pop 1.0 } if \00", align 1

; Function Attrs: nounwind uwtable
define internal void @EmitRangeCheck(ptr noundef %0) #0 {
  %2 = alloca ptr, align 8
  store ptr %0, ptr %2, align 8
  %3 = load ptr, ptr %2, align 8
  %4 = call i32 (ptr, ptr, ...) @_cmsIOPrintf(ptr noundef %3, ptr noundef @.str.40)
  ret void
}

; Function Attrs: nounwind uwtable
define internal void @Emit1Gamma(ptr noundef %0, ptr noundef %1) #0 {
  %3 = alloca ptr, align 8
  %4 = alloca ptr, align 8
  %5 = alloca i32, align 4
  %6 = alloca double, align 8
  store ptr %0, ptr %3, align 8
  store ptr %1, ptr %4, align 8
  %7 = load ptr, ptr %4, align 8
  %8 = icmp eq ptr %7, null
  br i1 %8, label %18, label %9

9:                                                ; preds = %2
  %10 = load ptr, ptr %4, align 8
  %11 = getelementptr inbounds %struct._cms_curve_struct, ptr %10, i32 0, i32 5
  %12 = load i32, ptr %11, align 8
  %13 = icmp ule i32 %12, 0
  br i1 %13, label %18, label %14

14:                                               ; preds = %9
  %15 = load ptr, ptr %4, align 8
  %16 = call i32 @cmsIsToneCurveLinear(ptr noundef %15)
  %17 = icmp ne i32 %16, 0
  br i1 %17, label %18, label %21

18:                                               ; preds = %14, %9, %2
  %19 = load ptr, ptr %3, align 8
  %20 = call i32 (ptr, ptr, ...) @_cmsIOPrintf(ptr noundef %19, ptr noundef @.str.17)
  br label %118

21:                                               ; preds = %14
  %22 = load ptr, ptr %4, align 8
  %23 = call double @cmsEstimateGamma(ptr noundef %22, double noundef 1.000000e-03)
  store double %23, ptr %6, align 8
  %24 = load double, ptr %6, align 8
  %25 = fcmp ogt double %24, 0.000000e+00
  br i1 %25, label %26, label %30

26:                                               ; preds = %21
  %27 = load ptr, ptr %3, align 8
  %28 = load double, ptr %6, align 8
  %29 = call i32 (ptr, ptr, ...) @_cmsIOPrintf(ptr noundef %27, ptr noundef @.str.18, double noundef %28)
  br label %118

30:                                               ; preds = %21
  %31 = load ptr, ptr %3, align 8
  %32 = call i32 (ptr, ptr, ...) @_cmsIOPrintf(ptr noundef %31, ptr noundef @.str.19)
  %33 = load ptr, ptr %3, align 8
  call void @EmitRangeCheck(ptr noundef %33)
  %34 = load ptr, ptr %3, align 8
  %35 = call i32 (ptr, ptr, ...) @_cmsIOPrintf(ptr noundef %34, ptr noundef @.str.20)
  store i32 0, ptr %5, align 4
  br label %36

36:                                               ; preds = %60, %30
  %37 = load i32, ptr %5, align 4
  %38 = load ptr, ptr %4, align 8
  %39 = getelementptr inbounds %struct._cms_curve_struct, ptr %38, i32 0, i32 5
  %40 = load i32, ptr %39, align 8
  %41 = icmp ult i32 %37, %40
  br i1 %41, label %42, label %63

42:                                               ; preds = %36
  %43 = load i32, ptr %5, align 4
  %44 = urem i32 %43, 10
  %45 = icmp eq i32 %44, 0
  br i1 %45, label %46, label %49

46:                                               ; preds = %42
  %47 = load ptr, ptr %3, align 8
  %48 = call i32 (ptr, ptr, ...) @_cmsIOPrintf(ptr noundef %47, ptr noundef @.str.21)
  br label %49

49:                                               ; preds = %46, %42
  %50 = load ptr, ptr %3, align 8
  %51 = load ptr, ptr %4, align 8
  %52 = getelementptr inbounds %struct._cms_curve_struct, ptr %51, i32 0, i32 6
  %53 = load ptr, ptr %52, align 8
  %54 = load i32, ptr %5, align 4
  %55 = zext i32 %54 to i64
  %56 = getelementptr inbounds i16, ptr %53, i64 %55
  %57 = load i16, ptr %56, align 2
  %58 = zext i16 %57 to i32
  %59 = call i32 (ptr, ptr, ...) @_cmsIOPrintf(ptr noundef %50, ptr noundef @.str.22, i32 noundef %58)
  br label %60

60:                                               ; preds = %49
  %61 = load i32, ptr %5, align 4
  %62 = add i32 %61, 1
  store i32 %62, ptr %5, align 4
  br label %36, !llvm.loop !11

63:                                               ; preds = %36
  %64 = load ptr, ptr %3, align 8
  %65 = call i32 (ptr, ptr, ...) @_cmsIOPrintf(ptr noundef %64, ptr noundef @.str.23)
  %66 = load ptr, ptr %3, align 8
  %67 = call i32 (ptr, ptr, ...) @_cmsIOPrintf(ptr noundef %66, ptr noundef @.str.24)
  %68 = load ptr, ptr %3, align 8
  %69 = call i32 (ptr, ptr, ...) @_cmsIOPrintf(ptr noundef %68, ptr noundef @.str.25)
  %70 = load ptr, ptr %3, align 8
  %71 = call i32 (ptr, ptr, ...) @_cmsIOPrintf(ptr noundef %70, ptr noundef @.str.26)
  %72 = load ptr, ptr %3, align 8
  %73 = call i32 (ptr, ptr, ...) @_cmsIOPrintf(ptr noundef %72, ptr noundef @.str.27)
  %74 = load ptr, ptr %3, align 8
  %75 = call i32 (ptr, ptr, ...) @_cmsIOPrintf(ptr noundef %74, ptr noundef @.str.24)
  %76 = load ptr, ptr %3, align 8
  %77 = call i32 (ptr, ptr, ...) @_cmsIOPrintf(ptr noundef %76, ptr noundef @.str.24)
  %78 = load ptr, ptr %3, align 8
  %79 = call i32 (ptr, ptr, ...) @_cmsIOPrintf(ptr noundef %78, ptr noundef @.str.28)
  %80 = load ptr, ptr %3, align 8
  %81 = call i32 (ptr, ptr, ...) @_cmsIOPrintf(ptr noundef %80, ptr noundef @.str.29)
  %82 = load ptr, ptr %3, align 8
  %83 = call i32 (ptr, ptr, ...) @_cmsIOPrintf(ptr noundef %82, ptr noundef @.str.30)
  %84 = load ptr, ptr %3, align 8
  %85 = call i32 (ptr, ptr, ...) @_cmsIOPrintf(ptr noundef %84, ptr noundef @.str.31)
  %86 = load ptr, ptr %3, align 8
  %87 = call i32 (ptr, ptr, ...) @_cmsIOPrintf(ptr noundef %86, ptr noundef @.str.29)
  %88 = load ptr, ptr %3, align 8
  %89 = call i32 (ptr, ptr, ...) @_cmsIOPrintf(ptr noundef %88, ptr noundef @.str.32)
  %90 = load ptr, ptr %3, align 8
  %91 = call i32 (ptr, ptr, ...) @_cmsIOPrintf(ptr noundef %90, ptr noundef @.str.33)
  %92 = load ptr, ptr %3, align 8
  %93 = call i32 (ptr, ptr, ...) @_cmsIOPrintf(ptr noundef %92, ptr noundef @.str.26)
  %94 = load ptr, ptr %3, align 8
  %95 = call i32 (ptr, ptr, ...) @_cmsIOPrintf(ptr noundef %94, ptr noundef @.str.34)
  %96 = load ptr, ptr %3, align 8
  %97 = call i32 (ptr, ptr, ...) @_cmsIOPrintf(ptr noundef %96, ptr noundef @.str.24)
  %98 = load ptr, ptr %3, align 8
  %99 = call i32 (ptr, ptr, ...) @_cmsIOPrintf(ptr noundef %98, ptr noundef @.str.35)
  %100 = load ptr, ptr %3, align 8
  %101 = call i32 (ptr, ptr, ...) @_cmsIOPrintf(ptr noundef %100, ptr noundef @.str.36)
  %102 = load ptr, ptr %3, align 8
  %103 = call i32 (ptr, ptr, ...) @_cmsIOPrintf(ptr noundef %102, ptr noundef @.str.26)
  %104 = load ptr, ptr %3, align 8
  %105 = call i32 (ptr, ptr, ...) @_cmsIOPrintf(ptr noundef %104, ptr noundef @.str.24)
  %106 = load ptr, ptr %3, align 8
  %107 = call i32 (ptr, ptr, ...) @_cmsIOPrintf(ptr noundef %106, ptr noundef @.str.28)
  %108 = load ptr, ptr %3, align 8
  %109 = call i32 (ptr, ptr, ...) @_cmsIOPrintf(ptr noundef %108, ptr noundef @.str.36)
  %110 = load ptr, ptr %3, align 8
  %111 = call i32 (ptr, ptr, ...) @_cmsIOPrintf(ptr noundef %110, ptr noundef @.str.27)
  %112 = load ptr, ptr %3, align 8
  %113 = call i32 (ptr, ptr, ...) @_cmsIOPrintf(ptr noundef %112, ptr noundef @.str.37)
  %114 = load ptr, ptr %3, align 8
  %115 = call i32 (ptr, ptr, ...) @_cmsIOPrintf(ptr noundef %114, ptr noundef @.str.38)
  %116 = load ptr, ptr %3, align 8
  %117 = call i32 (ptr, ptr, ...) @_cmsIOPrintf(ptr noundef %116, ptr noundef @.str.39)
  br label %118

118:                                              ; preds = %63, %26, %18
  ret void
}