; Function Attrs: nounwind uwtable
define internal fastcc void @Emit1Gamma(ptr noundef %0, ptr noundef %1) unnamed_addr #0 {
  %3 = icmp eq ptr %1, null
  br i1 %3, label %10, label %4

4:                                                ; preds = %2
  %5 = getelementptr inbounds i8, ptr %1, i64 40
  %6 = load i32, ptr %5, align 8
  %7 = icmp eq i32 %6, 0
  br i1 %7, label %10, label %8

8:                                                ; preds = %4
  %9 = tail call i32 @cmsIsToneCurveLinear(ptr noundef nonnull %1) #9
  %.not = icmp eq i32 %9, 0
  br i1 %.not, label %12, label %10

10:                                               ; preds = %8, %4, %2
  %11 = tail call i32 (ptr, ptr, ...) @_cmsIOPrintf(ptr noundef %0, ptr noundef nonnull @.str.17) #9
  br label %65

12:                                               ; preds = %8
  %13 = tail call double @cmsEstimateGamma(ptr noundef nonnull %1, double noundef 1.000000e-03) #9
  %14 = fcmp ogt double %13, 0.000000e+00
  br i1 %14, label %15, label %17

15:                                               ; preds = %12
  %16 = tail call i32 (ptr, ptr, ...) @_cmsIOPrintf(ptr noundef %0, ptr noundef nonnull @.str.18, double noundef %13) #9
  br label %65

17:                                               ; preds = %12
  %18 = tail call i32 (ptr, ptr, ...) @_cmsIOPrintf(ptr noundef %0, ptr noundef nonnull @.str.19) #9
  %19 = tail call i32 (ptr, ptr, ...) @_cmsIOPrintf(ptr noundef %0, ptr noundef nonnull @.str.40) #9
  %20 = tail call i32 (ptr, ptr, ...) @_cmsIOPrintf(ptr noundef %0, ptr noundef nonnull @.str.20) #9
  %21 = load i32, ptr %5, align 8
  %.not48 = icmp eq i32 %21, 0
  br i1 %.not48, label %._crit_edge, label %.lr.ph

.lr.ph:                                           ; preds = %17
  %22 = getelementptr inbounds i8, ptr %1, i64 48
  br label %23

23:                                               ; preds = %.lr.ph, %29
  %indvars.iv = phi i64 [ 0, %.lr.ph ], [ %indvars.iv.next, %29 ]
  %24 = trunc nuw i64 %indvars.iv to i32
  %25 = urem i32 %24, 10
  %26 = icmp eq i32 %25, 0
  br i1 %26, label %27, label %29

27:                                               ; preds = %23
  %28 = tail call i32 (ptr, ptr, ...) @_cmsIOPrintf(ptr noundef %0, ptr noundef nonnull @.str.21) #9
  br label %29

29:                                               ; preds = %27, %23
  %30 = load ptr, ptr %22, align 8
  %31 = getelementptr inbounds i16, ptr %30, i64 %indvars.iv
  %32 = load i16, ptr %31, align 2
  %33 = zext i16 %32 to i32
  %34 = tail call i32 (ptr, ptr, ...) @_cmsIOPrintf(ptr noundef %0, ptr noundef nonnull @.str.22, i32 noundef %33) #9
  %indvars.iv.next = add nuw nsw i64 %indvars.iv, 1
  %35 = load i32, ptr %5, align 8
  %36 = zext i32 %35 to i64
  %37 = icmp ult i64 %indvars.iv.next, %36
  br i1 %37, label %23, label %._crit_edge, !llvm.loop !17

._crit_edge:                                      ; preds = %29, %17
  %38 = tail call i32 (ptr, ptr, ...) @_cmsIOPrintf(ptr noundef %0, ptr noundef nonnull @.str.23) #9
  %39 = tail call i32 (ptr, ptr, ...) @_cmsIOPrintf(ptr noundef %0, ptr noundef nonnull @.str.24) #9
  %40 = tail call i32 (ptr, ptr, ...) @_cmsIOPrintf(ptr noundef %0, ptr noundef nonnull @.str.25) #9
  %41 = tail call i32 (ptr, ptr, ...) @_cmsIOPrintf(ptr noundef %0, ptr noundef nonnull @.str.26) #9
  %42 = tail call i32 (ptr, ptr, ...) @_cmsIOPrintf(ptr noundef %0, ptr noundef nonnull @.str.27) #9
  %43 = tail call i32 (ptr, ptr, ...) @_cmsIOPrintf(ptr noundef %0, ptr noundef nonnull @.str.24) #9
  %44 = tail call i32 (ptr, ptr, ...) @_cmsIOPrintf(ptr noundef %0, ptr noundef nonnull @.str.24) #9
  %45 = tail call i32 (ptr, ptr, ...) @_cmsIOPrintf(ptr noundef %0, ptr noundef nonnull @.str.28) #9
  %46 = tail call i32 (ptr, ptr, ...) @_cmsIOPrintf(ptr noundef %0, ptr noundef nonnull @.str.29) #9
  %47 = tail call i32 (ptr, ptr, ...) @_cmsIOPrintf(ptr noundef %0, ptr noundef nonnull @.str.30) #9
  %48 = tail call i32 (ptr, ptr, ...) @_cmsIOPrintf(ptr noundef %0, ptr noundef nonnull @.str.31) #9
  %49 = tail call i32 (ptr, ptr, ...) @_cmsIOPrintf(ptr noundef %0, ptr noundef nonnull @.str.29) #9
  %50 = tail call i32 (ptr, ptr, ...) @_cmsIOPrintf(ptr noundef %0, ptr noundef nonnull @.str.32) #9
  %51 = tail call i32 (ptr, ptr, ...) @_cmsIOPrintf(ptr noundef %0, ptr noundef nonnull @.str.33) #9
  %52 = tail call i32 (ptr, ptr, ...) @_cmsIOPrintf(ptr noundef %0, ptr noundef nonnull @.str.26) #9
  %53 = tail call i32 (ptr, ptr, ...) @_cmsIOPrintf(ptr noundef %0, ptr noundef nonnull @.str.34) #9
  %54 = tail call i32 (ptr, ptr, ...) @_cmsIOPrintf(ptr noundef %0, ptr noundef nonnull @.str.24) #9
  %55 = tail call i32 (ptr, ptr, ...) @_cmsIOPrintf(ptr noundef %0, ptr noundef nonnull @.str.35) #9
  %56 = tail call i32 (ptr, ptr, ...) @_cmsIOPrintf(ptr noundef %0, ptr noundef nonnull @.str.36) #9
  %57 = tail call i32 (ptr, ptr, ...) @_cmsIOPrintf(ptr noundef %0, ptr noundef nonnull @.str.26) #9
  %58 = tail call i32 (ptr, ptr, ...) @_cmsIOPrintf(ptr noundef %0, ptr noundef nonnull @.str.24) #9
  %59 = tail call i32 (ptr, ptr, ...) @_cmsIOPrintf(ptr noundef %0, ptr noundef nonnull @.str.28) #9
  %60 = tail call i32 (ptr, ptr, ...) @_cmsIOPrintf(ptr noundef %0, ptr noundef nonnull @.str.36) #9
  %61 = tail call i32 (ptr, ptr, ...) @_cmsIOPrintf(ptr noundef %0, ptr noundef nonnull @.str.27) #9
  %62 = tail call i32 (ptr, ptr, ...) @_cmsIOPrintf(ptr noundef %0, ptr noundef nonnull @.str.37) #9
  %63 = tail call i32 (ptr, ptr, ...) @_cmsIOPrintf(ptr noundef %0, ptr noundef nonnull @.str.38) #9
  %64 = tail call i32 (ptr, ptr, ...) @_cmsIOPrintf(ptr noundef %0, ptr noundef nonnull @.str.39) #9
  br label %65

65:                                               ; preds = %._crit_edge, %15, %10
  ret void
}